target datalayout = "e-m:e-p270:32:32-p271:32:32-p272:64:64-i64:64-i128:128-f80:128-n8:16:32:64-S128"
target triple = "x86_64-pc-linux-gnu"

%struct.darktable_t = type { %struct.dt_codepath_t, i32, i32, ptr, ptr, ptr, ptr, ptr, ptr, ptr, ptr, ptr, ptr, ptr, ptr, ptr, ptr, ptr, ptr, ptr, ptr, ptr, ptr, ptr, ptr, ptr, ptr, ptr, ptr, ptr, [64 x %struct.dt_pthread_mutex_t], %struct.dt_pthread_mutex_t, %struct.dt_pthread_mutex_t, %struct.dt_pthread_mutex_t, %struct.dt_pthread_mutex_t, %struct.dt_pthread_mutex_t, ptr, ptr, ptr, ptr, ptr, ptr, ptr, ptr, ptr, ptr, ptr, ptr, ptr, %struct.dt_lua_state_t, ptr, double, ptr, i32, [47 x i32], i32, i32, ptr, ptr, %struct.dt_sys_resources_t, %struct.dt_backthumb_t, %struct.dt_gimp_t }
%struct.dt_codepath_t = type { i8, [3 x i8] }
%struct.dt_pthread_mutex_t = type { %union.pthread_mutex_t }
%union.pthread_mutex_t = type { %struct.__pthread_mutex_s }
%struct.__pthread_mutex_s = type { i32, i32, i32, i32, i32, i16, i16, %struct.__pthread_internal_list }
%struct.__pthread_internal_list = type { ptr, ptr }
%struct.dt_lua_state_t = type { i32 }
%struct.dt_sys_resources_t = type { i64, i64, ptr, ptr, i32 }
%struct.dt_backthumb_t = type { double, double, i32, i32, i32, i32 }
%struct.dt_gimp_t = type { i32, ptr, ptr, i32, i32 }
%struct.dt_control_image_enumerator_t = type { ptr, i32, ptr, i32 }
%struct.dt_control_gpx_apply_t = type { ptr, ptr }

@darktable = external global %struct.darktable_t, align 8
@.str.48 = private unnamed_addr constant [129 x i8] c"generated/home/dtcxzyw/WorkSpace/Projects/compilers/llvm-opt-benchmark/bench/darktable/darktable/src/control/jobs/control_jobs.c\00", align 1
@.str.71 = private unnamed_addr constant [10 x i8] c"gpx apply\00", align 1
@.str.76 = private unnamed_addr constant [41 x i8] c"[sql] %s:%d, function %s(): prepare \22%s\22\00", align 1
@__FUNCTION__.dt_control_image_enumerator_job_film_init = private unnamed_addr constant [42 x i8] c"dt_control_image_enumerator_job_film_init\00", align 1
@.str.77 = private unnamed_addr constant [46 x i8] c"SELECT id FROM main.images WHERE film_id = ?1\00", align 1
@stderr = external global ptr, align 8
@.str.78 = private unnamed_addr constant [53 x i8] c"sqlite3 error: %s:%d, function %s(), query \22%s\22: %s\0A\00", align 1
@.str.79 = private unnamed_addr constant [41 x i8] c"sqlite3 error: %s:%d, function %s(): %s\0A\00", align 1

; Function Attrs: nounwind uwtable
define internal void @dt_control_image_enumerator_cleanup(ptr noundef %0) #0 {
  %2 = alloca ptr, align 8
  %3 = alloca ptr, align 8
  store ptr %0, ptr %2, align 8, !tbaa !6
  call void @llvm.lifetime.start.p0(i64 8, ptr %3) #14
  %4 = load ptr, ptr %2, align 8, !tbaa !6
  store ptr %4, ptr %3, align 8, !tbaa !53
  %5 = load ptr, ptr %3, align 8, !tbaa !53
  %6 = getelementptr inbounds nuw %struct.dt_control_image_enumerator_t, ptr %5, i32 0, i32 0
  %7 = load ptr, ptr %6, align 8, !tbaa !57
  call void @g_list_free(ptr noundef %7)
  %8 = load ptr, ptr %3, align 8, !tbaa !53
  %9 = getelementptr inbounds nuw %struct.dt_control_image_enumerator_t, ptr %8, i32 0, i32 0
  store ptr null, ptr %9, align 8, !tbaa !57
  %10 = load ptr, ptr %3, align 8, !tbaa !53
  %11 = getelementptr inbounds nuw %struct.dt_control_image_enumerator_t, ptr %10, i32 0, i32 3
  %12 = load i32, ptr %11, align 8, !tbaa !55
  %13 = icmp ne i32 %12, 0
  br i1 %13, label %14, label %15

14:                                               ; preds = %1
  call void @g_main_context_invoke(ptr noundef null, ptr noundef @_cursor_clear_busy, ptr noundef null)
  br label %15

15:                                               ; preds = %14, %1
  %16 = load ptr, ptr %3, align 8, !tbaa !53
  call void @free(ptr noundef %16) #14
  call void @llvm.lifetime.end.p0(i64 8, ptr %3) #14
  ret void
}

; Function Attrs: nounwind uwtable
define internal ptr @dt_control_image_enumerator_alloc() #0 {
  %1 = alloca ptr, align 8
  %2 = alloca ptr, align 8
  %3 = alloca i32, align 4
  call void @llvm.lifetime.start.p0(i64 8, ptr %2) #14
  %4 = call noalias ptr @calloc(i64 noundef 1, i64 noundef 32) #19
  store ptr %4, ptr %2, align 8, !tbaa !53
  %5 = load ptr, ptr %2, align 8, !tbaa !53
  %6 = icmp ne ptr %5, null
  br i1 %6, label %8, label %7

7:                                                ; preds = %0
  store ptr null, ptr %1, align 8
  store i32 1, ptr %3, align 4
  br label %10

8:                                                ; preds = %0
  %9 = load ptr, ptr %2, align 8, !tbaa !53
  store ptr %9, ptr %1, align 8
  store i32 1, ptr %3, align 4
  br label %10

10:                                               ; preds = %8, %7
  call void @llvm.lifetime.end.p0(i64 8, ptr %2) #14
  %11 = load ptr, ptr %1, align 8
  ret ptr %11
}

; Function Attrs: nounwind uwtable
define internal void @dt_control_image_enumerator_job_film_init(ptr noundef %0, i32 noundef %1) #0 {
  %3 = alloca ptr, align 8
  %4 = alloca i32, align 4
  %5 = alloca ptr, align 8
  %6 = alloca i32, align 4
  %7 = alloca i32, align 4
  %8 = alloca i32, align 4
  store ptr %0, ptr %3, align 8, !tbaa !53
  store i32 %1, ptr %4, align 4, !tbaa !50
  call void @llvm.lifetime.start.p0(i64 8, ptr %5) #14
  br label %9

9:                                                ; preds = %2
  br label %10

10:                                               ; preds = %9
  %11 = load i32, ptr getelementptr inbounds nuw (%struct.darktable_t, ptr @darktable, i32 0, i32 2), align 8, !tbaa !85
  %12 = and i32 256, %11
  %13 = icmp ne i32 %12, 0
  br i1 %13, label %14, label %20

14:                                               ; preds = %10
  %15 = load i32, ptr getelementptr inbounds nuw (%struct.darktable_t, ptr @darktable, i32 0, i32 2), align 8, !tbaa !85
  %16 = xor i32 %15, -1
  %17 = and i32 0, %16
  %18 = icmp ne i32 %17, 0
  br i1 %18, label %20, label %19

19:                                               ; preds = %14
  call void (ptr, ...) @dt_print_ext(ptr noundef @.str.76, ptr noundef @.str.48, i32 noundef 149, ptr noundef @__FUNCTION__.dt_control_image_enumerator_job_film_init, ptr noundef @.str.77)
  br label %20

20:                                               ; preds = %19, %14, %10
  br label %21

21:                                               ; preds = %20
  br label %22

22:                                               ; preds = %21
  call void @llvm.lifetime.start.p0(i64 4, ptr %6) #14
  %23 = load ptr, ptr getelementptr inbounds nuw (%struct.darktable_t, ptr @darktable, i32 0, i32 18), align 8, !tbaa !96
  %24 = call ptr @dt_database_get(ptr noundef %23)
  %25 = call i32 @sqlite3_prepare_v2(ptr noundef %24, ptr noundef @.str.77, i32 noundef -1, ptr noundef %5, ptr noundef null)
  store i32 %25, ptr %6, align 4, !tbaa !50
  %26 = load i32, ptr %6, align 4, !tbaa !50
  %27 = icmp ne i32 %26, 0
  br i1 %27, label %28, label %34

28:                                               ; preds = %22
  %29 = load ptr, ptr @stderr, align 8, !tbaa !97
  %30 = load ptr, ptr getelementptr inbounds nuw (%struct.darktable_t, ptr @darktable, i32 0, i32 18), align 8, !tbaa !96
  %31 = call ptr @dt_database_get(ptr noundef %30)
  %32 = call ptr @sqlite3_errmsg(ptr noundef %31)
  %33 = call i32 (ptr, ptr, ...) @fprintf(ptr noundef %29, ptr noundef @.str.78, ptr noundef @.str.48, i32 noundef 149, ptr noundef @__FUNCTION__.dt_control_image_enumerator_job_film_init, ptr noundef @.str.77, ptr noundef %32) #14
  br label %34

34:                                               ; preds = %28, %22
  call void @llvm.lifetime.end.p0(i64 4, ptr %6) #14
  br label %35

35:                                               ; preds = %34
  br label %36

36:                                               ; preds = %35
  call void @llvm.lifetime.start.p0(i64 4, ptr %7) #14
  %37 = load ptr, ptr %5, align 8, !tbaa !94
  %38 = load i32, ptr %4, align 4, !tbaa !50
  %39 = call i32 @sqlite3_bind_int(ptr noundef %37, i32 noundef 1, i32 noundef %38)
  store i32 %39, ptr %7, align 4, !tbaa !50
  %40 = load i32, ptr %7, align 4, !tbaa !50
  %41 = icmp ne i32 %40, 0
  br i1 %41, label %42, label %48

42:                                               ; preds = %36
  %43 = load ptr, ptr @stderr, align 8, !tbaa !97
  %44 = load ptr, ptr getelementptr inbounds nuw (%struct.darktable_t, ptr @darktable, i32 0, i32 18), align 8, !tbaa !96
  %45 = call ptr @dt_database_get(ptr noundef %44)
  %46 = call ptr @sqlite3_errmsg(ptr noundef %45)
  %47 = call i32 (ptr, ptr, ...) @fprintf(ptr noundef %43, ptr noundef @.str.79, ptr noundef @.str.48, i32 noundef 150, ptr noundef @__FUNCTION__.dt_control_image_enumerator_job_film_init, ptr noundef %46) #14
  br label %48

48:                                               ; preds = %42, %36
  call void @llvm.lifetime.end.p0(i64 4, ptr %7) #14
  br label %49

49:                                               ; preds = %53, %48
  %50 = load ptr, ptr %5, align 8, !tbaa !94
  %51 = call i32 @sqlite3_step(ptr noundef %50)
  %52 = icmp eq i32 %51, 100
  br i1 %52, label %53, label %65

53:                                               ; preds = %49
  call void @llvm.lifetime.start.p0(i64 4, ptr %8) #14
  %54 = load ptr, ptr %5, align 8, !tbaa !94
  %55 = call i32 @sqlite3_column_int(ptr noundef %54, i32 noundef 0)
  store i32 %55, ptr %8, align 4, !tbaa !50
  %56 = load ptr, ptr %3, align 8, !tbaa !53
  %57 = getelementptr inbounds nuw %struct.dt_control_image_enumerator_t, ptr %56, i32 0, i32 0
  %58 = load ptr, ptr %57, align 8, !tbaa !57
  %59 = load i32, ptr %8, align 4, !tbaa !50
  %60 = sext i32 %59 to i64
  %61 = inttoptr i64 %60 to ptr
  %62 = call ptr @g_list_append(ptr noundef %58, ptr noundef %61)
  %63 = load ptr, ptr %3, align 8, !tbaa !53
  %64 = getelementptr inbounds nuw %struct.dt_control_image_enumerator_t, ptr %63, i32 0, i32 0
  store ptr %62, ptr %64, align 8, !tbaa !57
  call void @llvm.lifetime.end.p0(i64 4, ptr %8) #14
  br label %49

65:                                               ; preds = %49
  %66 = load ptr, ptr %5, align 8, !tbaa !94
  %67 = call i32 @sqlite3_finalize(ptr noundef %66)
  call void @llvm.lifetime.end.p0(i64 8, ptr %5) #14
  ret void
}

; Function Attrs: nounwind uwtable
define internal ptr @dt_control_gpx_apply_alloc() #0 {
  %1 = alloca ptr, align 8
  %2 = alloca ptr, align 8
  %3 = alloca i32, align 4
  call void @llvm.lifetime.start.p0(i64 8, ptr %2) #14
  %4 = call ptr @dt_control_image_enumerator_alloc()
  store ptr %4, ptr %2, align 8, !tbaa !53
  %5 = load ptr, ptr %2, align 8, !tbaa !53
  %6 = icmp ne ptr %5, null
  br i1 %6, label %8, label %7

7:                                                ; preds = %0
  store ptr null, ptr %1, align 8
  store i32 1, ptr %3, align 4
  br label %20

8:                                                ; preds = %0
  %9 = call noalias ptr @calloc(i64 noundef 1, i64 noundef 16) #19
  %10 = load ptr, ptr %2, align 8, !tbaa !53
  %11 = getelementptr inbounds nuw %struct.dt_control_image_enumerator_t, ptr %10, i32 0, i32 2
  store ptr %9, ptr %11, align 8, !tbaa !59
  %12 = load ptr, ptr %2, align 8, !tbaa !53
  %13 = getelementptr inbounds nuw %struct.dt_control_image_enumerator_t, ptr %12, i32 0, i32 2
  %14 = load ptr, ptr %13, align 8, !tbaa !59
  %15 = icmp ne ptr %14, null
  br i1 %15, label %18, label %16

16:                                               ; preds = %8
  %17 = load ptr, ptr %2, align 8, !tbaa !53
  call void @dt_control_image_enumerator_cleanup(ptr noundef %17)
  store ptr null, ptr %1, align 8
  store i32 1, ptr %3, align 4
  br label %20

18:                                               ; preds = %8
  %19 = load ptr, ptr %2, align 8, !tbaa !53
  store ptr %19, ptr %1, align 8
  store i32 1, ptr %3, align 4
  br label %20

20:                                               ; preds = %18, %16, %7
  call void @llvm.lifetime.end.p0(i64 8, ptr %2) #14
  %21 = load ptr, ptr %1, align 8
  ret ptr %21
}

; Function Attrs: nounwind uwtable
define internal ptr @_control_gpx_apply_job_create(ptr noundef %0, i32 noundef %1, ptr noundef %2, ptr noundef %3) #0 {
  %5 = alloca ptr, align 8
  %6 = alloca ptr, align 8
  %7 = alloca i32, align 4
  %8 = alloca ptr, align 8
  %9 = alloca ptr, align 8
  %10 = alloca ptr, align 8
  %11 = alloca i32, align 4
  %12 = alloca ptr, align 8
  %13 = alloca ptr, align 8
  store ptr %0, ptr %6, align 8, !tbaa !49
  store i32 %1, ptr %7, align 4, !tbaa !50
  store ptr %2, ptr %8, align 8, !tbaa !49
  store ptr %3, ptr %9, align 8, !tbaa !60
  call void @llvm.lifetime.start.p0(i64 8, ptr %10) #14
  %14 = call ptr (ptr, ptr, ...) @dt_control_job_create(ptr noundef @dt_control_gpx_apply_job_run, ptr noundef @.str.71)
  store ptr %14, ptr %10, align 8, !tbaa !51
  %15 = load ptr, ptr %10, align 8, !tbaa !51
  %16 = icmp ne ptr %15, null
  br i1 %16, label %18, label %17

17:                                               ; preds = %4
  store ptr null, ptr %5, align 8
  store i32 1, ptr %11, align 4
  br label %58

18:                                               ; preds = %4
  call void @llvm.lifetime.start.p0(i64 8, ptr %12) #14
  %19 = call ptr @dt_control_gpx_apply_alloc()
  store ptr %19, ptr %12, align 8, !tbaa !53
  %20 = load ptr, ptr %12, align 8, !tbaa !53
  %21 = icmp ne ptr %20, null
  br i1 %21, label %24, label %22

22:                                               ; preds = %18
  %23 = load ptr, ptr %10, align 8, !tbaa !51
  call void @dt_control_job_dispose(ptr noundef %23)
  store ptr null, ptr %5, align 8
  store i32 1, ptr %11, align 4
  br label %57

24:                                               ; preds = %18
  %25 = load ptr, ptr %10, align 8, !tbaa !51
  %26 = load ptr, ptr %12, align 8, !tbaa !53
  call void @dt_control_job_set_params(ptr noundef %25, ptr noundef %26, ptr noundef @dt_control_gpx_apply_job_cleanup)
  %27 = load i32, ptr %7, align 4, !tbaa !50
  %28 = icmp ne i32 %27, -1
  br i1 %28, label %29, label %32

29:                                               ; preds = %24
  %30 = load ptr, ptr %12, align 8, !tbaa !53
  %31 = load i32, ptr %7, align 4, !tbaa !50
  call void @dt_control_image_enumerator_job_film_init(ptr noundef %30, i32 noundef %31)
  br label %44

32:                                               ; preds = %24
  %33 = load ptr, ptr %9, align 8, !tbaa !60
  %34 = icmp ne ptr %33, null
  br i1 %34, label %39, label %35

35:                                               ; preds = %32
  %36 = call ptr @dt_act_on_get_images(i32 noundef 1, i32 noundef 1, i32 noundef 0)
  %37 = load ptr, ptr %12, align 8, !tbaa !53
  %38 = getelementptr inbounds nuw %struct.dt_control_image_enumerator_t, ptr %37, i32 0, i32 0
  store ptr %36, ptr %38, align 8, !tbaa !57
  br label %43

39:                                               ; preds = %32
  %40 = load ptr, ptr %9, align 8, !tbaa !60
  %41 = load ptr, ptr %12, align 8, !tbaa !53
  %42 = getelementptr inbounds nuw %struct.dt_control_image_enumerator_t, ptr %41, i32 0, i32 0
  store ptr %40, ptr %42, align 8, !tbaa !57
  br label %43

43:                                               ; preds = %39, %35
  br label %44

44:                                               ; preds = %43, %29
  call void @llvm.lifetime.start.p0(i64 8, ptr %13) #14
  %45 = load ptr, ptr %12, align 8, !tbaa !53
  %46 = getelementptr inbounds nuw %struct.dt_control_image_enumerator_t, ptr %45, i32 0, i32 2
  %47 = load ptr, ptr %46, align 8, !tbaa !59
  store ptr %47, ptr %13, align 8, !tbaa !87
  %48 = load ptr, ptr %6, align 8, !tbaa !49
  %49 = call noalias ptr @g_strdup(ptr noundef %48)
  %50 = load ptr, ptr %13, align 8, !tbaa !87
  %51 = getelementptr inbounds nuw %struct.dt_control_gpx_apply_t, ptr %50, i32 0, i32 0
  store ptr %49, ptr %51, align 8, !tbaa !89
  %52 = load ptr, ptr %8, align 8, !tbaa !49
  %53 = call noalias ptr @g_strdup(ptr noundef %52)
  %54 = load ptr, ptr %13, align 8, !tbaa !87
  %55 = getelementptr inbounds nuw %struct.dt_control_gpx_apply_t, ptr %54, i32 0, i32 1
  store ptr %53, ptr %55, align 8, !tbaa !91
  %56 = load ptr, ptr %10, align 8, !tbaa !51
  store ptr %56, ptr %5, align 8
  store i32 1, ptr %11, align 4
  call void @llvm.lifetime.end.p0(i64 8, ptr %13) #14
  br label %57

57:                                               ; preds = %44, %22
  call void @llvm.lifetime.end.p0(i64 8, ptr %12) #14
  br label %58

58:                                               ; preds = %57, %17
  call void @llvm.lifetime.end.p0(i64 8, ptr %10) #14
  %59 = load ptr, ptr %5, align 8
  ret ptr %59
}

; Function Attrs: nounwind uwtable
define void @dt_control_gpx_apply(ptr noundef %0, i32 noundef %1, ptr noundef %2, ptr noundef %3) #0 {
  %5 = alloca ptr, align 8
  %6 = alloca i32, align 4
  %7 = alloca ptr, align 8
  %8 = alloca ptr, align 8
  store ptr %0, ptr %5, align 8, !tbaa !49
  store i32 %1, ptr %6, align 4, !tbaa !50
  store ptr %2, ptr %7, align 8, !tbaa !49
  store ptr %3, ptr %8, align 8, !tbaa !60
  %9 = load ptr, ptr getelementptr inbounds nuw (%struct.darktable_t, ptr @darktable, i32 0, i32 12), align 8, !tbaa !10
  %10 = load ptr, ptr %5, align 8, !tbaa !49
  %11 = load i32, ptr %6, align 4, !tbaa !50
  %12 = load ptr, ptr %7, align 8, !tbaa !49
  %13 = load ptr, ptr %8, align 8, !tbaa !60
  %14 = call ptr @_control_gpx_apply_job_create(ptr noundef %10, i32 noundef %11, ptr noundef %12, ptr noundef %13)
  %15 = call i32 @dt_control_add_job(ptr noundef %9, i32 noundef 0, ptr noundef %14)
  ret void
}