; Function Attrs: nounwind uwtable
define void @dt_control_gpx_apply(ptr noundef %0, i32 noundef %1, ptr noundef %2, ptr noundef %3) local_unnamed_addr #0 {
  %5 = alloca ptr, align 8
  %6 = load ptr, ptr getelementptr inbounds nuw (i8, ptr @darktable, i64 88), align 8, !tbaa !6
  %7 = tail call ptr (ptr, ptr, ...) @dt_control_job_create(ptr noundef nonnull @dt_control_gpx_apply_job_run, ptr noundef nonnull @.str.71) #17
  %.not.i = icmp eq ptr %7, null
  br i1 %.not.i, label %_control_gpx_apply_job_create.exit, label %8

8:                                                ; preds = %4
  %9 = tail call noalias noundef dereferenceable_or_null(32) ptr @calloc(i64 noundef 1, i64 noundef 32) #18
  %.not.i.i = icmp eq ptr %9, null
  br i1 %.not.i.i, label %13, label %10

10:                                               ; preds = %8
  %11 = tail call noalias dereferenceable_or_null(16) ptr @calloc(i64 noundef 1, i64 noundef 16) #18
  %12 = getelementptr inbounds nuw i8, ptr %9, i64 16
  store ptr %11, ptr %12, align 8, !tbaa !52
  %.not7.i.i = icmp eq ptr %11, null
  br i1 %.not7.i.i, label %dt_control_image_enumerator_cleanup.exit.i.i, label %dt_control_gpx_apply_alloc.exit.i

dt_control_image_enumerator_cleanup.exit.i.i:     ; preds = %10
  tail call void @g_list_free(ptr noundef null) #17
  tail call void @free(ptr noundef nonnull %9) #17
  br label %13

13:                                               ; preds = %dt_control_image_enumerator_cleanup.exit.i.i, %8
  tail call void @dt_control_job_dispose(ptr noundef nonnull %7) #17
  br label %_control_gpx_apply_job_create.exit

dt_control_gpx_apply_alloc.exit.i:                ; preds = %10
  tail call void @dt_control_job_set_params(ptr noundef nonnull %7, ptr noundef nonnull %9, ptr noundef nonnull @dt_control_gpx_apply_job_cleanup) #17
  %.not23.i = icmp eq i32 %1, -1
  br i1 %.not23.i, label %52, label %14

14:                                               ; preds = %dt_control_gpx_apply_alloc.exit.i
  call void @llvm.lifetime.start.p0(i64 8, ptr nonnull %5) #17
  %15 = load i32, ptr getelementptr inbounds nuw (i8, ptr @darktable, i64 8), align 8, !tbaa !77
  %16 = and i32 %15, 256
  %.not.i25.i = icmp eq i32 %16, 0
  br i1 %.not.i25.i, label %18, label %17

17:                                               ; preds = %14
  tail call void (ptr, ...) @dt_print_ext(ptr noundef nonnull @.str.76, ptr noundef nonnull @.str.48, i32 noundef 149, ptr noundef nonnull @__FUNCTION__.dt_control_image_enumerator_job_film_init, ptr noundef nonnull @.str.77) #17
  br label %18

18:                                               ; preds = %17, %14
  %19 = load ptr, ptr getelementptr inbounds nuw (i8, ptr @darktable, i64 136), align 8, !tbaa !79
  %20 = tail call ptr @dt_database_get(ptr noundef %19) #17
  %21 = call i32 @sqlite3_prepare_v2(ptr noundef %20, ptr noundef nonnull @.str.77, i32 noundef -1, ptr noundef nonnull %5, ptr noundef null) #17
  %.not5.i.i = icmp eq i32 %21, 0
  br i1 %.not5.i.i, label %28, label %22

22:                                               ; preds = %18
  %23 = load ptr, ptr @stderr, align 8, !tbaa !80
  %24 = load ptr, ptr getelementptr inbounds nuw (i8, ptr @darktable, i64 136), align 8, !tbaa !79
  %25 = call ptr @dt_database_get(ptr noundef %24) #17
  %26 = call ptr @sqlite3_errmsg(ptr noundef %25) #17
  %27 = call i32 (ptr, ptr, ...) @fprintf(ptr noundef %23, ptr noundef nonnull @.str.78, ptr noundef nonnull @.str.48, i32 noundef 149, ptr noundef nonnull @__FUNCTION__.dt_control_image_enumerator_job_film_init, ptr noundef nonnull @.str.77, ptr noundef %26) #20
  br label %28

28:                                               ; preds = %22, %18
  %29 = load ptr, ptr %5, align 8, !tbaa !82
  %30 = call i32 @sqlite3_bind_int(ptr noundef %29, i32 noundef 1, i32 noundef range(i32 0, -1) %1) #17
  %.not6.i.i = icmp eq i32 %30, 0
  br i1 %.not6.i.i, label %37, label %31

31:                                               ; preds = %28
  %32 = load ptr, ptr @stderr, align 8, !tbaa !80
  %33 = load ptr, ptr getelementptr inbounds nuw (i8, ptr @darktable, i64 136), align 8, !tbaa !79
  %34 = call ptr @dt_database_get(ptr noundef %33) #17
  %35 = call ptr @sqlite3_errmsg(ptr noundef %34) #17
  %36 = call i32 (ptr, ptr, ...) @fprintf(ptr noundef %32, ptr noundef nonnull @.str.79, ptr noundef nonnull @.str.48, i32 noundef 150, ptr noundef nonnull @__FUNCTION__.dt_control_image_enumerator_job_film_init, ptr noundef %35) #20
  br label %37

37:                                               ; preds = %31, %28
  %38 = load ptr, ptr %5, align 8, !tbaa !82
  %39 = call i32 @sqlite3_step(ptr noundef %38) #17
  %40 = icmp eq i32 %39, 100
  br i1 %40, label %.lr.ph.i.i, label %dt_control_image_enumerator_job_film_init.exit.i

.lr.ph.i.i:                                       ; preds = %37, %.lr.ph.i.i
  %41 = load ptr, ptr %5, align 8, !tbaa !82
  %42 = call i32 @sqlite3_column_int(ptr noundef %41, i32 noundef 0) #17
  %43 = load ptr, ptr %9, align 8, !tbaa !50
  %44 = sext i32 %42 to i64
  %45 = inttoptr i64 %44 to ptr
  %46 = call ptr @g_list_append(ptr noundef %43, ptr noundef %45) #17
  store ptr %46, ptr %9, align 8, !tbaa !50
  %47 = load ptr, ptr %5, align 8, !tbaa !82
  %48 = call i32 @sqlite3_step(ptr noundef %47) #17
  %49 = icmp eq i32 %48, 100
  br i1 %49, label %.lr.ph.i.i, label %dt_control_image_enumerator_job_film_init.exit.i

dt_control_image_enumerator_job_film_init.exit.i: ; preds = %.lr.ph.i.i, %37
  %50 = load ptr, ptr %5, align 8, !tbaa !82
  %51 = call i32 @sqlite3_finalize(ptr noundef %50) #17
  call void @llvm.lifetime.end.p0(i64 8, ptr nonnull %5) #17
  br label %56

52:                                               ; preds = %dt_control_gpx_apply_alloc.exit.i
  %.not24.i = icmp eq ptr %3, null
  br i1 %.not24.i, label %53, label %55

53:                                               ; preds = %52
  %54 = tail call ptr @dt_act_on_get_images(i32 noundef 1, i32 noundef 1, i32 noundef 0) #17
  store ptr %54, ptr %9, align 8, !tbaa !50
  br label %56

55:                                               ; preds = %52
  store ptr %3, ptr %9, align 8, !tbaa !50
  br label %56

56:                                               ; preds = %55, %53, %dt_control_image_enumerator_job_film_init.exit.i
  %57 = load ptr, ptr %12, align 8, !tbaa !52
  %58 = call noalias ptr @g_strdup(ptr noundef %0) #17
  store ptr %58, ptr %57, align 8, !tbaa !84
  %59 = call noalias ptr @g_strdup(ptr noundef %2) #17
  %60 = getelementptr inbounds nuw i8, ptr %57, i64 8
  store ptr %59, ptr %60, align 8, !tbaa !86
  br label %_control_gpx_apply_job_create.exit

_control_gpx_apply_job_create.exit:               ; preds = %4, %13, %56
  %.0.i = phi ptr [ null, %4 ], [ %7, %56 ], [ null, %13 ]
  %61 = call i32 @dt_control_add_job(ptr noundef %6, i32 noundef 0, ptr noundef %.0.i) #17
  ret void
}